target datalayout = "e-m:e-p270:32:32-p271:32:32-p272:64:64-i64:64-i128:128-f80:128-n8:16:32:64-S128"
target triple = "x86_64-pc-linux-gnu"

%struct._zval_struct = type { %union._zend_value, %union.anon.3, %union.anon.6 }
%union._zend_value = type { i64 }
%union.anon.3 = type { i32 }
%union.anon.6 = type { i32 }
%struct._zend_refcounted_h = type { i32, %union.anon.1 }
%union.anon.1 = type { i32 }
%struct._pdo_stmt_t = type { ptr, ptr, [6 x i8], i16, ptr, ptr, ptr, ptr, i32, i32, %union.anon, ptr, ptr, ptr, i64, ptr, ptr, ptr, %struct._zend_object }
%union.anon = type { %struct.anon.0 }
%struct.anon.0 = type { %struct._zend_fcall_info_cache }
%struct._zend_fcall_info_cache = type { ptr, ptr, ptr, ptr, ptr }
%struct._zend_object = type { %struct._zend_refcounted_h, i32, i32, ptr, ptr, ptr, [1 x %struct._zval_struct] }
%struct.pdo_column_data = type { ptr, i64, i64 }
%struct._zend_string = type { %struct._zend_refcounted_h, i64, i64, [1 x i8] }
%struct._pdo_row_t = type { ptr, %struct._zend_object }

@.str.63 = private unnamed_addr constant [12 x i8] c"queryString\00", align 1

; Function Attrs: alwaysinline nounwind uwtable
define internal zeroext i1 @zend_string_equal_content(ptr noundef %0, ptr noundef %1) #3 {
  %3 = alloca ptr, align 8
  %4 = alloca ptr, align 8
  store ptr %0, ptr %3, align 8, !tbaa !39
  store ptr %1, ptr %4, align 8, !tbaa !39
  %5 = load ptr, ptr %3, align 8, !tbaa !39
  %6 = getelementptr inbounds nuw %struct._zend_string, ptr %5, i32 0, i32 2
  %7 = load i64, ptr %6, align 8, !tbaa !115
  %8 = load ptr, ptr %4, align 8, !tbaa !39
  %9 = getelementptr inbounds nuw %struct._zend_string, ptr %8, i32 0, i32 2
  %10 = load i64, ptr %9, align 8, !tbaa !115
  %11 = icmp eq i64 %7, %10
  br i1 %11, label %12, label %16

12:                                               ; preds = %2
  %13 = load ptr, ptr %3, align 8, !tbaa !39
  %14 = load ptr, ptr %4, align 8, !tbaa !39
  %15 = call zeroext i1 @zend_string_equal_val(ptr noundef %13, ptr noundef %14)
  br label %16

16:                                               ; preds = %12, %2
  %17 = phi i1 [ false, %2 ], [ %15, %12 ]
  ret i1 %17
}

; Function Attrs: alwaysinline nounwind uwtable
define internal zeroext i1 @zend_string_equals(ptr noundef %0, ptr noundef %1) #3 {
  %3 = alloca ptr, align 8
  %4 = alloca ptr, align 8
  store ptr %0, ptr %3, align 8, !tbaa !39
  store ptr %1, ptr %4, align 8, !tbaa !39
  %5 = load ptr, ptr %3, align 8, !tbaa !39
  %6 = load ptr, ptr %4, align 8, !tbaa !39
  %7 = icmp eq ptr %5, %6
  br i1 %7, label %12, label %8

8:                                                ; preds = %2
  %9 = load ptr, ptr %3, align 8, !tbaa !39
  %10 = load ptr, ptr %4, align 8, !tbaa !39
  %11 = call zeroext i1 @zend_string_equal_content(ptr noundef %9, ptr noundef %10)
  br label %12

12:                                               ; preds = %8, %2
  %13 = phi i1 [ true, %2 ], [ %11, %8 ]
  ret i1 %13
}

; Function Attrs: nounwind uwtable
define internal ptr @row_read_column_name(ptr noundef %0, ptr noundef %1, ptr noundef %2) #0 {
  %4 = alloca ptr, align 8
  %5 = alloca ptr, align 8
  %6 = alloca ptr, align 8
  %7 = alloca ptr, align 8
  %8 = alloca i32, align 4
  %9 = alloca i32, align 4
  store ptr %0, ptr %5, align 8, !tbaa !4
  store ptr %1, ptr %6, align 8, !tbaa !39
  store ptr %2, ptr %7, align 8, !tbaa !47
  call void @llvm.lifetime.start.p0(i64 4, ptr %8) #14
  store i32 0, ptr %8, align 4, !tbaa !26
  br label %10

10:                                               ; preds = %34, %3
  %11 = load i32, ptr %8, align 4, !tbaa !26
  %12 = load ptr, ptr %5, align 8, !tbaa !4
  %13 = getelementptr inbounds nuw %struct._pdo_stmt_t, ptr %12, i32 0, i32 8
  %14 = load i32, ptr %13, align 8, !tbaa !9
  %15 = icmp slt i32 %11, %14
  br i1 %15, label %17, label %16

16:                                               ; preds = %10
  store i32 2, ptr %9, align 4
  br label %37

17:                                               ; preds = %10
  %18 = load ptr, ptr %5, align 8, !tbaa !4
  %19 = getelementptr inbounds nuw %struct._pdo_stmt_t, ptr %18, i32 0, i32 7
  %20 = load ptr, ptr %19, align 8, !tbaa !25
  %21 = load i32, ptr %8, align 4, !tbaa !26
  %22 = sext i32 %21 to i64
  %23 = getelementptr inbounds %struct.pdo_column_data, ptr %20, i64 %22
  %24 = getelementptr inbounds nuw %struct.pdo_column_data, ptr %23, i32 0, i32 0
  %25 = load ptr, ptr %24, align 8, !tbaa !37
  %26 = load ptr, ptr %6, align 8, !tbaa !39
  %27 = call zeroext i1 @zend_string_equals(ptr noundef %25, ptr noundef %26)
  br i1 %27, label %28, label %33

28:                                               ; preds = %17
  %29 = load ptr, ptr %5, align 8, !tbaa !4
  %30 = load ptr, ptr %7, align 8, !tbaa !47
  %31 = load i32, ptr %8, align 4, !tbaa !26
  call void @fetch_value(ptr noundef %29, ptr noundef %30, i32 noundef %31, ptr noundef null)
  %32 = load ptr, ptr %7, align 8, !tbaa !47
  store ptr %32, ptr %4, align 8
  store i32 1, ptr %9, align 4
  br label %37

33:                                               ; preds = %17
  br label %34

34:                                               ; preds = %33
  %35 = load i32, ptr %8, align 4, !tbaa !26
  %36 = add nsw i32 %35, 1
  store i32 %36, ptr %8, align 4, !tbaa !26
  br label %10

37:                                               ; preds = %28, %16
  call void @llvm.lifetime.end.p0(i64 4, ptr %8) #14
  %38 = load i32, ptr %9, align 4
  switch i32 %38, label %42 [
    i32 2, label %39
    i32 1, label %40
  ]

39:                                               ; preds = %37
  store ptr null, ptr %4, align 8
  br label %40

40:                                               ; preds = %39, %37
  %41 = load ptr, ptr %4, align 8
  ret ptr %41

42:                                               ; preds = %37
  unreachable
}

; Function Attrs: nounwind uwtable
define internal ptr @row_read_column_number(ptr noundef %0, i64 noundef %1, ptr noundef %2) #0 {
  %4 = alloca ptr, align 8
  %5 = alloca ptr, align 8
  %6 = alloca i64, align 8
  %7 = alloca ptr, align 8
  store ptr %0, ptr %5, align 8, !tbaa !4
  store i64 %1, ptr %6, align 8, !tbaa !92
  store ptr %2, ptr %7, align 8, !tbaa !47
  %8 = load i64, ptr %6, align 8, !tbaa !92
  %9 = icmp sge i64 %8, 0
  br i1 %9, label %10, label %23

10:                                               ; preds = %3
  %11 = load i64, ptr %6, align 8, !tbaa !92
  %12 = load ptr, ptr %5, align 8, !tbaa !4
  %13 = getelementptr inbounds nuw %struct._pdo_stmt_t, ptr %12, i32 0, i32 8
  %14 = load i32, ptr %13, align 8, !tbaa !9
  %15 = sext i32 %14 to i64
  %16 = icmp slt i64 %11, %15
  br i1 %16, label %17, label %23

17:                                               ; preds = %10
  %18 = load ptr, ptr %5, align 8, !tbaa !4
  %19 = load ptr, ptr %7, align 8, !tbaa !47
  %20 = load i64, ptr %6, align 8, !tbaa !92
  %21 = trunc i64 %20 to i32
  call void @fetch_value(ptr noundef %18, ptr noundef %19, i32 noundef %21, ptr noundef null)
  %22 = load ptr, ptr %7, align 8, !tbaa !47
  store ptr %22, ptr %4, align 8
  br label %24

23:                                               ; preds = %10, %3
  store ptr null, ptr %4, align 8
  br label %24

24:                                               ; preds = %23, %17
  %25 = load ptr, ptr %4, align 8
  ret ptr %25
}

; Function Attrs: alwaysinline nounwind uwtable
define internal zeroext i1 @zend_string_equals_cstr(ptr noundef %0, ptr noundef %1, i64 noundef %2) #3 {
  %4 = alloca ptr, align 8
  %5 = alloca ptr, align 8
  %6 = alloca i64, align 8
  store ptr %0, ptr %4, align 8, !tbaa !39
  store ptr %1, ptr %5, align 8, !tbaa !52
  store i64 %2, ptr %6, align 8, !tbaa !92
  %7 = load ptr, ptr %4, align 8, !tbaa !39
  %8 = getelementptr inbounds nuw %struct._zend_string, ptr %7, i32 0, i32 2
  %9 = load i64, ptr %8, align 8, !tbaa !115
  %10 = load i64, ptr %6, align 8, !tbaa !92
  %11 = icmp eq i64 %9, %10
  br i1 %11, label %12, label %21

12:                                               ; preds = %3
  %13 = load ptr, ptr %4, align 8, !tbaa !39
  %14 = getelementptr inbounds nuw %struct._zend_string, ptr %13, i32 0, i32 3
  %15 = getelementptr inbounds [1 x i8], ptr %14, i64 0, i64 0
  %16 = load ptr, ptr %5, align 8, !tbaa !52
  %17 = load i64, ptr %6, align 8, !tbaa !92
  %18 = call i32 @memcmp(ptr noundef %15, ptr noundef %16, i64 noundef %17) #16
  %19 = icmp ne i32 %18, 0
  %20 = xor i1 %19, true
  br label %21

21:                                               ; preds = %12, %3
  %22 = phi i1 [ false, %3 ], [ %20, %12 ]
  ret i1 %22
}

; Function Attrs: inlinehint nounwind uwtable
define internal ptr @php_pdo_row_fetch_object(ptr noundef %0) #7 {
  %2 = alloca ptr, align 8
  store ptr %0, ptr %2, align 8, !tbaa !108
  %3 = load ptr, ptr %2, align 8, !tbaa !108
  %4 = getelementptr inbounds i8, ptr %3, i64 -8
  ret ptr %4
}

; Function Attrs: nounwind uwtable
define internal ptr @row_prop_read(ptr noundef %0, ptr noundef %1, i32 noundef %2, ptr noundef %3, ptr noundef %4) #0 {
  %6 = alloca ptr, align 8
  %7 = alloca ptr, align 8
  %8 = alloca ptr, align 8
  %9 = alloca i32, align 4
  %10 = alloca ptr, align 8
  %11 = alloca ptr, align 8
  %12 = alloca ptr, align 8
  %13 = alloca ptr, align 8
  %14 = alloca i64, align 8
  %15 = alloca ptr, align 8
  %16 = alloca i32, align 4
  store ptr %0, ptr %7, align 8, !tbaa !108
  store ptr %1, ptr %8, align 8, !tbaa !39
  store i32 %2, ptr %9, align 4, !tbaa !26
  store ptr %3, ptr %10, align 8, !tbaa !133
  store ptr %4, ptr %11, align 8, !tbaa !47
  call void @llvm.lifetime.start.p0(i64 8, ptr %12) #14
  %17 = load ptr, ptr %7, align 8, !tbaa !108
  %18 = call ptr @php_pdo_row_fetch_object(ptr noundef %17)
  store ptr %18, ptr %12, align 8, !tbaa !197
  call void @llvm.lifetime.start.p0(i64 8, ptr %13) #14
  %19 = load ptr, ptr %12, align 8, !tbaa !197
  %20 = getelementptr inbounds nuw %struct._pdo_row_t, ptr %19, i32 0, i32 0
  %21 = load ptr, ptr %20, align 8, !tbaa !199
  store ptr %21, ptr %13, align 8, !tbaa !4
  call void @llvm.lifetime.start.p0(i64 8, ptr %14) #14
  call void @llvm.lifetime.start.p0(i64 8, ptr %15) #14
  %22 = load ptr, ptr %13, align 8, !tbaa !4
  %23 = icmp ne ptr %22, null
  call void @llvm.assume(i1 %23)
  br label %24

24:                                               ; preds = %5
  %25 = load ptr, ptr %11, align 8, !tbaa !47
  %26 = getelementptr inbounds nuw %struct._zval_struct, ptr %25, i32 0, i32 1
  store i32 1, ptr %26, align 8, !tbaa !45
  br label %27

27:                                               ; preds = %24
  br label %28

28:                                               ; preds = %27
  %29 = load ptr, ptr %8, align 8, !tbaa !39
  %30 = call zeroext i1 @zend_string_equals_cstr(ptr noundef %29, ptr noundef @.str.63, i64 noundef 11)
  br i1 %30, label %31, label %39

31:                                               ; preds = %28
  %32 = load ptr, ptr %13, align 8, !tbaa !4
  %33 = getelementptr inbounds nuw %struct._pdo_stmt_t, ptr %32, i32 0, i32 18
  %34 = load ptr, ptr %8, align 8, !tbaa !39
  %35 = load i32, ptr %9, align 4, !tbaa !26
  %36 = load ptr, ptr %10, align 8, !tbaa !133
  %37 = load ptr, ptr %11, align 8, !tbaa !47
  %38 = call ptr @zend_std_read_property(ptr noundef %33, ptr noundef %34, i32 noundef %35, ptr noundef %36, ptr noundef %37)
  store ptr %38, ptr %6, align 8
  store i32 1, ptr %16, align 4
  br label %74

39:                                               ; preds = %28
  %40 = load ptr, ptr %8, align 8, !tbaa !39
  %41 = call zeroext i8 @is_numeric_str_function(ptr noundef %40, ptr noundef %14, ptr noundef null)
  %42 = zext i8 %41 to i32
  %43 = icmp eq i32 %42, 4
  br i1 %43, label %44, label %49

44:                                               ; preds = %39
  %45 = load ptr, ptr %13, align 8, !tbaa !4
  %46 = load i64, ptr %14, align 8, !tbaa !92
  %47 = load ptr, ptr %11, align 8, !tbaa !47
  %48 = call ptr @row_read_column_number(ptr noundef %45, i64 noundef %46, ptr noundef %47)
  store ptr %48, ptr %15, align 8, !tbaa !47
  br label %54

49:                                               ; preds = %39
  %50 = load ptr, ptr %13, align 8, !tbaa !4
  %51 = load ptr, ptr %8, align 8, !tbaa !39
  %52 = load ptr, ptr %11, align 8, !tbaa !47
  %53 = call ptr @row_read_column_name(ptr noundef %50, ptr noundef %51, ptr noundef %52)
  store ptr %53, ptr %15, align 8, !tbaa !47
  br label %54

54:                                               ; preds = %49, %44
  br label %55

55:                                               ; preds = %54
  %56 = load ptr, ptr %15, align 8, !tbaa !47
  %57 = icmp ne ptr %56, null
  %58 = xor i1 %57, true
  %59 = xor i1 %58, true
  %60 = xor i1 %59, true
  %61 = zext i1 %60 to i32
  %62 = sext i32 %61 to i64
  %63 = call i64 @llvm.expect.i64(i64 %62, i64 0)
  %64 = icmp ne i64 %63, 0
  br i1 %64, label %65, label %72

65:                                               ; preds = %55
  br label %66

66:                                               ; preds = %65
  %67 = load ptr, ptr %11, align 8, !tbaa !47
  %68 = getelementptr inbounds nuw %struct._zval_struct, ptr %67, i32 0, i32 1
  store i32 1, ptr %68, align 8, !tbaa !45
  br label %69

69:                                               ; preds = %66
  br label %70

70:                                               ; preds = %69
  %71 = load ptr, ptr %11, align 8, !tbaa !47
  store ptr %71, ptr %6, align 8
  store i32 1, ptr %16, align 4
  br label %74

72:                                               ; preds = %55
  %73 = load ptr, ptr %15, align 8, !tbaa !47
  store ptr %73, ptr %6, align 8
  store i32 1, ptr %16, align 4
  br label %74

74:                                               ; preds = %72, %70, %31
  call void @llvm.lifetime.end.p0(i64 8, ptr %15) #14
  call void @llvm.lifetime.end.p0(i64 8, ptr %14) #14
  call void @llvm.lifetime.end.p0(i64 8, ptr %13) #14
  call void @llvm.lifetime.end.p0(i64 8, ptr %12) #14
  %75 = load ptr, ptr %6, align 8
  ret ptr %75
}