; Function Attrs: nounwind uwtable
define internal ptr @row_prop_read(ptr noundef readonly captures(none) %0, ptr noundef %1, i32 noundef %2, ptr noundef %3, ptr noundef initializes((8, 12)) %4) #0 {
  %6 = alloca i64, align 8
  %7 = getelementptr inbounds i8, ptr %0, i64 -8
  %8 = load ptr, ptr %7, align 8, !tbaa !112, !nonnull !40, !noundef !40
  call void @llvm.lifetime.start.p0(i64 8, ptr nonnull %6) #17
  %9 = getelementptr inbounds nuw i8, ptr %4, i64 8
  store i32 1, ptr %9, align 8, !tbaa !37
  %10 = getelementptr inbounds nuw i8, ptr %1, i64 16
  %11 = load i64, ptr %10, align 8, !tbaa !97
  %12 = icmp eq i64 %11, 11
  br i1 %12, label %zend_string_equals_cstr.exit, label %zend_string_equals_cstr.exit.thread

zend_string_equals_cstr.exit:                     ; preds = %5
  %13 = getelementptr inbounds nuw i8, ptr %1, i64 24
  %bcmp.i = tail call i32 @bcmp(ptr noundef nonnull dereferenceable(11) %13, ptr noundef nonnull dereferenceable(11) @.str.63, i64 11)
  %.not.i = icmp eq i32 %bcmp.i, 0
  br i1 %.not.i, label %14, label %zend_string_equals_cstr.exit.thread

14:                                               ; preds = %zend_string_equals_cstr.exit
  %15 = getelementptr inbounds nuw i8, ptr %8, i64 160
  %16 = tail call ptr @zend_std_read_property(ptr noundef nonnull %15, ptr noundef nonnull %1, i32 noundef %2, ptr noundef %3, ptr noundef nonnull %4) #17
  br label %47

zend_string_equals_cstr.exit.thread:              ; preds = %5, %zend_string_equals_cstr.exit
  %17 = call zeroext i8 @is_numeric_str_function(ptr noundef nonnull %1, ptr noundef nonnull %6, ptr noundef null) #17
  %18 = icmp eq i8 %17, 4
  br i1 %18, label %19, label %28

19:                                               ; preds = %zend_string_equals_cstr.exit.thread
  %20 = load i64, ptr %6, align 8, !tbaa !103
  %21 = icmp sgt i64 %20, -1
  br i1 %21, label %22, label %row_read_column_number.exit.thread

22:                                               ; preds = %19
  %23 = getelementptr inbounds nuw i8, ptr %8, i64 56
  %24 = load i32, ptr %23, align 8, !tbaa !4
  %25 = sext i32 %24 to i64
  %26 = icmp slt i64 %20, %25
  br i1 %26, label %row_read_column_number.exit.thread24, label %row_read_column_number.exit.thread

row_read_column_number.exit.thread24:             ; preds = %22
  %27 = trunc nuw nsw i64 %20 to i32
  call fastcc void @fetch_value(ptr noundef nonnull %8, ptr noundef nonnull %4, i32 noundef %27, ptr noundef null)
  br label %47

28:                                               ; preds = %zend_string_equals_cstr.exit.thread
  %29 = getelementptr inbounds nuw i8, ptr %8, i64 56
  %30 = load i32, ptr %29, align 8, !tbaa !4
  %.not15.i = icmp sgt i32 %30, 0
  br i1 %.not15.i, label %.lr.ph.i, label %row_read_column_number.exit.thread

.lr.ph.i:                                         ; preds = %28
  %31 = getelementptr inbounds nuw i8, ptr %8, i64 48
  br label %32

32:                                               ; preds = %zend_string_equals.exit.thread13.i, %.lr.ph.i
  %33 = phi i32 [ %30, %.lr.ph.i ], [ %44, %zend_string_equals.exit.thread13.i ]
  %indvars.iv.i = phi i64 [ 0, %.lr.ph.i ], [ %indvars.iv.next.i, %zend_string_equals.exit.thread13.i ]
  %34 = load ptr, ptr %31, align 8, !tbaa !23
  %35 = getelementptr inbounds nuw %struct.pdo_column_data, ptr %34, i64 %indvars.iv.i
  %36 = load ptr, ptr %35, align 8, !tbaa !35
  %37 = icmp eq ptr %36, %1
  br i1 %37, label %row_read_column_number.exit, label %38

38:                                               ; preds = %32
  %39 = getelementptr inbounds nuw i8, ptr %36, i64 16
  %40 = load i64, ptr %39, align 8, !tbaa !97
  %41 = load i64, ptr %10, align 8, !tbaa !97
  %42 = icmp eq i64 %40, %41
  br i1 %42, label %zend_string_equals.exit.i, label %zend_string_equals.exit.thread13.i

zend_string_equals.exit.i:                        ; preds = %38
  %43 = call zeroext i1 @zend_string_equal_val(ptr noundef nonnull %36, ptr noundef nonnull %1) #17
  br i1 %43, label %row_read_column_number.exit, label %zend_string_equals.exit.zend_string_equals.exit.thread13_crit_edge.i

zend_string_equals.exit.zend_string_equals.exit.thread13_crit_edge.i: ; preds = %zend_string_equals.exit.i
  %.pre.i = load i32, ptr %29, align 8, !tbaa !4
  br label %zend_string_equals.exit.thread13.i

zend_string_equals.exit.thread13.i:               ; preds = %zend_string_equals.exit.zend_string_equals.exit.thread13_crit_edge.i, %38
  %44 = phi i32 [ %.pre.i, %zend_string_equals.exit.zend_string_equals.exit.thread13_crit_edge.i ], [ %33, %38 ]
  %indvars.iv.next.i = add nuw nsw i64 %indvars.iv.i, 1
  %45 = sext i32 %44 to i64
  %.not.i21 = icmp slt i64 %indvars.iv.next.i, %45
  br i1 %.not.i21, label %32, label %row_read_column_number.exit.thread

row_read_column_number.exit:                      ; preds = %32, %zend_string_equals.exit.i
  %46 = trunc nuw nsw i64 %indvars.iv.i to i32
  call fastcc void @fetch_value(ptr noundef nonnull %8, ptr noundef %4, i32 noundef %46, ptr noundef null)
  %.not = icmp eq ptr %4, null
  br i1 %.not, label %row_read_column_number.exit.thread, label %47, !prof !105

row_read_column_number.exit.thread:               ; preds = %zend_string_equals.exit.thread13.i, %28, %19, %22, %row_read_column_number.exit
  store i32 1, ptr %9, align 8, !tbaa !37
  br label %47

47:                                               ; preds = %row_read_column_number.exit.thread24, %row_read_column_number.exit, %row_read_column_number.exit.thread, %14
  %.020 = phi ptr [ %16, %14 ], [ %4, %row_read_column_number.exit.thread ], [ %4, %row_read_column_number.exit ], [ %4, %row_read_column_number.exit.thread24 ]
  call void @llvm.lifetime.end.p0(i64 8, ptr nonnull %6) #17
  ret ptr %.020
}